; Function Attrs: nounwind uwtable
define hidden i32 @opj_end_decompress(ptr noundef %0, ptr noundef %1) local_unnamed_addr #2 {
  %3 = icmp ne ptr %0, null
  %4 = icmp ne ptr %1, null
  %or.cond = and i1 %3, %4
  br i1 %or.cond, label %5, label %15

5:                                                ; preds = %2
  %6 = getelementptr inbounds nuw i8, ptr %0, i64 152
  %7 = load i32, ptr %6, align 8, !tbaa !15
  %.not = icmp eq i32 %7, 0
  br i1 %.not, label %15, label %8

8:                                                ; preds = %5
  %9 = getelementptr inbounds nuw i8, ptr %0, i64 32
  %10 = load ptr, ptr %9, align 8, !tbaa !19
  %11 = getelementptr inbounds nuw i8, ptr %0, i64 96
  %12 = load ptr, ptr %11, align 8, !tbaa !21
  %13 = getelementptr inbounds nuw i8, ptr %0, i64 104
  %14 = tail call i32 %10(ptr noundef %12, ptr noundef nonnull %1, ptr noundef nonnull %13) #8
  br label %15

15:                                               ; preds = %2, %8, %5
  %.1 = phi i32 [ %14, %8 ], [ 0, %5 ], [ 0, %2 ]
  ret i32 %.1
}